; Function Attrs: nounwind uwtable
define i32 @If_ManCutAigDelay(ptr noundef %0, ptr noundef %1, ptr noundef readonly captures(none) %2) local_unnamed_addr #0 {
  %4 = getelementptr inbounds nuw i8, ptr %0, i64 2176
  %5 = load ptr, ptr %4, align 8, !tbaa !20
  %6 = getelementptr inbounds nuw i8, ptr %5, i64 4
  store i32 0, ptr %6, align 4, !tbaa !6
  %7 = getelementptr inbounds nuw i8, ptr %2, i64 36
  %8 = getelementptr inbounds nuw i8, ptr %2, i64 28
  %9 = load i64, ptr %8, align 4
  %10 = and i64 %9, 4278190080
  %.not31 = icmp eq i64 %10, 0
  br i1 %.not31, label %.critedge, label %.lr.ph

.lr.ph:                                           ; preds = %3
  %11 = getelementptr i8, ptr %0, i64 40
  br label %12

12:                                               ; preds = %.lr.ph, %Vec_PtrPush.exit
  %indvars.iv = phi i64 [ 0, %.lr.ph ], [ %indvars.iv.next, %Vec_PtrPush.exit ]
  %13 = getelementptr inbounds nuw [0 x i32], ptr %7, i64 0, i64 %indvars.iv
  %14 = load i32, ptr %13, align 4, !tbaa !34
  %.val24 = load ptr, ptr %11, align 8, !tbaa !35
  %15 = getelementptr i8, ptr %.val24, i64 8
  %.val24.val = load ptr, ptr %15, align 8, !tbaa !11
  %16 = sext i32 %14 to i64
  %17 = getelementptr inbounds ptr, ptr %.val24.val, i64 %16
  %18 = load ptr, ptr %17, align 8, !tbaa !12
  %.not = icmp eq ptr %18, null
  br i1 %.not, label %.critedge.loopexit, label %19

19:                                               ; preds = %12
  %20 = load i32, ptr %18, align 8
  %21 = or i32 %20, 512
  store i32 %21, ptr %18, align 8
  %22 = load ptr, ptr %4, align 8, !tbaa !20
  %23 = getelementptr inbounds nuw i8, ptr %22, i64 4
  %24 = load i32, ptr %23, align 4, !tbaa !6
  %25 = load i32, ptr %22, align 8, !tbaa !10
  %26 = icmp eq i32 %24, %25
  br i1 %26, label %27, label %.Vec_PtrGrow.exit11_crit_edge.i

.Vec_PtrGrow.exit11_crit_edge.i:                  ; preds = %19
  %.phi.trans.insert.i = getelementptr inbounds nuw i8, ptr %22, i64 8
  %.pre.i = load ptr, ptr %.phi.trans.insert.i, align 8, !tbaa !11
  br label %Vec_PtrPush.exit

27:                                               ; preds = %19
  %28 = icmp slt i32 %24, 16
  br i1 %28, label %29, label %37

29:                                               ; preds = %27
  %30 = getelementptr inbounds nuw i8, ptr %22, i64 8
  %31 = load ptr, ptr %30, align 8, !tbaa !11
  %.not9.i.i = icmp eq ptr %31, null
  br i1 %.not9.i.i, label %34, label %32

32:                                               ; preds = %29
  %33 = tail call dereferenceable_or_null(128) ptr @realloc(ptr noundef nonnull %31, i64 noundef 128) #20
  br label %Vec_PtrGrow.exit.i

34:                                               ; preds = %29
  %35 = tail call noalias dereferenceable_or_null(128) ptr @malloc(i64 noundef 128) #21
  br label %Vec_PtrGrow.exit.i

Vec_PtrGrow.exit.i:                               ; preds = %34, %32
  %36 = phi ptr [ %33, %32 ], [ %35, %34 ]
  store ptr %36, ptr %30, align 8, !tbaa !11
  store i32 16, ptr %22, align 8, !tbaa !10
  br label %Vec_PtrPush.exit

37:                                               ; preds = %27
  %38 = shl nuw nsw i32 %24, 1
  %39 = getelementptr inbounds nuw i8, ptr %22, i64 8
  %40 = load ptr, ptr %39, align 8, !tbaa !11
  %.not9.i10.i = icmp eq ptr %40, null
  %41 = zext nneg i32 %38 to i64
  %42 = shl nuw nsw i64 %41, 3
  br i1 %.not9.i10.i, label %45, label %43

43:                                               ; preds = %37
  %44 = tail call ptr @realloc(ptr noundef nonnull %40, i64 noundef %42) #20
  br label %47

45:                                               ; preds = %37
  %46 = tail call noalias ptr @malloc(i64 noundef %42) #21
  br label %47

47:                                               ; preds = %45, %43
  %48 = phi ptr [ %44, %43 ], [ %46, %45 ]
  store ptr %48, ptr %39, align 8, !tbaa !11
  store i32 %38, ptr %22, align 8, !tbaa !10
  br label %Vec_PtrPush.exit

Vec_PtrPush.exit:                                 ; preds = %.Vec_PtrGrow.exit11_crit_edge.i, %Vec_PtrGrow.exit.i, %47
  %49 = phi ptr [ %.pre.i, %.Vec_PtrGrow.exit11_crit_edge.i ], [ %48, %47 ], [ %36, %Vec_PtrGrow.exit.i ]
  %50 = load i32, ptr %23, align 4, !tbaa !6
  %51 = add nsw i32 %50, 1
  store i32 %51, ptr %23, align 4, !tbaa !6
  %52 = sext i32 %50 to i64
  %53 = getelementptr inbounds ptr, ptr %49, i64 %52
  store ptr %18, ptr %53, align 8, !tbaa !12
  %54 = getelementptr inbounds nuw i8, ptr %18, i64 92
  %55 = load float, ptr %54, align 4, !tbaa !36
  %56 = fptosi float %55 to i32
  %57 = getelementptr inbounds nuw i8, ptr %18, i64 64
  store i32 %56, ptr %57, align 8, !tbaa !3
  %indvars.iv.next = add nuw nsw i64 %indvars.iv, 1
  %58 = load i64, ptr %8, align 4
  %59 = lshr i64 %58, 24
  %60 = and i64 %59, 255
  %61 = icmp samesign ult i64 %indvars.iv.next, %60
  br i1 %61, label %12, label %.critedge.loopexit, !llvm.loop !37

.critedge.loopexit:                               ; preds = %Vec_PtrPush.exit, %12
  %.pre = load ptr, ptr %4, align 8, !tbaa !20
  br label %.critedge

.critedge:                                        ; preds = %.critedge.loopexit, %3
  %62 = phi ptr [ %.pre, %.critedge.loopexit ], [ %5, %3 ]
  %63 = tail call i32 @If_ManCutAigDelay_rec(ptr noundef nonnull %0, ptr noundef %1, ptr noundef %62)
  %64 = load ptr, ptr %4, align 8, !tbaa !20
  %65 = getelementptr i8, ptr %64, i64 4
  %.val2528 = load i32, ptr %65, align 4, !tbaa !6
  %66 = icmp sgt i32 %.val2528, 0
  br i1 %66, label %.lr.ph30, label %.critedge2

.lr.ph30:                                         ; preds = %.critedge, %.lr.ph30
  %indvars.iv33 = phi i64 [ %indvars.iv.next34, %.lr.ph30 ], [ 0, %.critedge ]
  %67 = phi ptr [ %73, %.lr.ph30 ], [ %64, %.critedge ]
  %68 = getelementptr i8, ptr %67, i64 8
  %.val = load ptr, ptr %68, align 8, !tbaa !11
  %69 = getelementptr inbounds nuw ptr, ptr %.val, i64 %indvars.iv33
  %70 = load ptr, ptr %69, align 8, !tbaa !12
  %71 = load i32, ptr %70, align 8
  %72 = and i32 %71, -513
  store i32 %72, ptr %70, align 8
  %indvars.iv.next34 = add nuw nsw i64 %indvars.iv33, 1
  %73 = load ptr, ptr %4, align 8, !tbaa !20
  %74 = getelementptr i8, ptr %73, i64 4
  %.val25 = load i32, ptr %74, align 4, !tbaa !6
  %75 = sext i32 %.val25 to i64
  %76 = icmp slt i64 %indvars.iv.next34, %75
  br i1 %76, label %.lr.ph30, label %.critedge2, !llvm.loop !39

.critedge2:                                       ; preds = %.lr.ph30, %.critedge
  ret i32 %63
}